target datalayout = "e-m:e-p270:32:32-p271:32:32-p272:64:64-i64:64-i128:128-f80:128-n8:16:32:64-S128"
target triple = "x86_64-pc-linux-gnu"

; Function Attrs: mustprogress uwtable
define internal noundef i64 @_ZL8fstFreadPvmmP8_IO_FILE(ptr noundef %0, i64 noundef %1, i64 noundef %2, ptr noundef %3) #0 {
  %5 = alloca ptr, align 8
  %6 = alloca i64, align 8
  %7 = alloca i64, align 8
  %8 = alloca ptr, align 8
  store ptr %0, ptr %5, align 8, !tbaa !50
  store i64 %1, ptr %6, align 8, !tbaa !35
  store i64 %2, ptr %7, align 8, !tbaa !35
  store ptr %3, ptr %8, align 8, !tbaa !33
  %9 = load ptr, ptr %5, align 8, !tbaa !50
  %10 = load i64, ptr %6, align 8, !tbaa !35
  %11 = load i64, ptr %7, align 8, !tbaa !35
  %12 = load ptr, ptr %8, align 8, !tbaa !33
  %13 = call i64 @fread(ptr noundef %9, i64 noundef %10, i64 noundef %11, ptr noundef %12)
  ret i64 %13
}

; Function Attrs: mustprogress uwtable
define internal noundef i64 @_ZL15fstReaderUint64P8_IO_FILE(ptr noundef %0) #0 {
  %2 = alloca ptr, align 8
  %3 = alloca i64, align 8
  %4 = alloca [8 x i8], align 1
  %5 = alloca i32, align 4
  store ptr %0, ptr %2, align 8, !tbaa !33
  call void @llvm.lifetime.start.p0(i64 8, ptr %3) #15
  store i64 0, ptr %3, align 8, !tbaa !35
  call void @llvm.lifetime.start.p0(i64 8, ptr %4) #15
  call void @llvm.lifetime.start.p0(i64 4, ptr %5) #15
  %6 = getelementptr inbounds [8 x i8], ptr %4, i64 0, i64 0
  %7 = load ptr, ptr %2, align 8, !tbaa !33
  %8 = call noundef i64 @_ZL8fstFreadPvmmP8_IO_FILE(ptr noundef %6, i64 noundef 8, i64 noundef 1, ptr noundef %7)
  store i32 0, ptr %5, align 4, !tbaa !11
  br label %9

9:                                                ; preds = %23, %1
  %10 = load i32, ptr %5, align 4, !tbaa !11
  %11 = zext i32 %10 to i64
  %12 = icmp ult i64 %11, 8
  br i1 %12, label %13, label %26

13:                                               ; preds = %9
  %14 = load i64, ptr %3, align 8, !tbaa !35
  %15 = shl i64 %14, 8
  store i64 %15, ptr %3, align 8, !tbaa !35
  %16 = load i32, ptr %5, align 4, !tbaa !11
  %17 = zext i32 %16 to i64
  %18 = getelementptr inbounds nuw [8 x i8], ptr %4, i64 0, i64 %17
  %19 = load i8, ptr %18, align 1, !tbaa !34
  %20 = zext i8 %19 to i64
  %21 = load i64, ptr %3, align 8, !tbaa !35
  %22 = or i64 %21, %20
  store i64 %22, ptr %3, align 8, !tbaa !35
  br label %23

23:                                               ; preds = %13
  %24 = load i32, ptr %5, align 4, !tbaa !11
  %25 = add i32 %24, 1
  store i32 %25, ptr %5, align 4, !tbaa !11
  br label %9, !llvm.loop !211

26:                                               ; preds = %9
  %27 = load i64, ptr %3, align 8, !tbaa !35
  call void @llvm.lifetime.end.p0(i64 4, ptr %5) #15
  call void @llvm.lifetime.end.p0(i64 8, ptr %4) #15
  call void @llvm.lifetime.end.p0(i64 8, ptr %3) #15
  ret i64 %27
}