; Function Attrs: mustprogress nofree nounwind uwtable
define internal fastcc noundef i64 @_ZL15fstReaderUint64P8_IO_FILE(ptr noundef captures(none) %0) unnamed_addr #14 {
  %2 = alloca [8 x i8], align 1
  call void @llvm.lifetime.start.p0(i64 8, ptr nonnull %2) #39
  %3 = call noundef i64 @fread(ptr noundef nonnull %2, i64 noundef 8, i64 noundef 1, ptr noundef %0)
  br label %4

4:                                                ; preds = %1, %4
  %indvars.iv = phi i64 [ 0, %1 ], [ %indvars.iv.next, %4 ]
  %.068 = phi i64 [ 0, %1 ], [ %9, %4 ]
  %5 = shl i64 %.068, 8
  %6 = getelementptr inbounds nuw [8 x i8], ptr %2, i64 0, i64 %indvars.iv
  %7 = load i8, ptr %6, align 1, !tbaa !6
  %8 = zext i8 %7 to i64
  %9 = or disjoint i64 %5, %8
  %indvars.iv.next = add nuw nsw i64 %indvars.iv, 1
  %exitcond.not = icmp eq i64 %indvars.iv.next, 8
  br i1 %exitcond.not, label %10, label %4, !llvm.loop !156

10:                                               ; preds = %4
  call void @llvm.lifetime.end.p0(i64 8, ptr nonnull %2) #39
  ret i64 %9
}